target datalayout = "e-m:e-p270:32:32-p271:32:32-p272:64:64-i64:64-i128:128-f80:128-n8:16:32:64-S128"
target triple = "x86_64-pc-linux-gnu"

%struct.VirtualTransactionId = type { i32, i32 }
%struct.PGPROC = type { %struct.dlist_node, ptr, ptr, i32, %struct.Latch, i32, i32, i32, i32, %struct.anon, i32, i32, i32, i8, i8, i8, i8, %struct.proclist_node, %struct.proclist_node, ptr, ptr, i32, i32, %struct.pg_atomic_uint64, i32, i8, i64, i32, %struct.dlist_node, [16 x %struct.dlist_head], %struct.XidCacheStatus, %struct.XidCache, i8, %struct.pg_atomic_uint32, i32, i32, i8, %struct.pg_atomic_uint32, i32, i32, i64, i64, %struct.LWLock, ptr, ptr, i8, i32, ptr, %struct.dlist_head, %struct.dlist_node }
%struct.Latch = type { i32, i32, i8, i32 }
%struct.anon = type { i32, i32 }
%struct.proclist_node = type { i32, i32 }
%struct.pg_atomic_uint64 = type { i64 }
%struct.XidCacheStatus = type { i8, i8 }
%struct.XidCache = type { [64 x i32] }
%struct.pg_atomic_uint32 = type { i32 }
%struct.LWLock = type { i16, %struct.pg_atomic_uint32, %struct.proclist_head }
%struct.proclist_head = type { i32, i32 }
%struct.dlist_head = type { %struct.dlist_node }
%struct.dlist_node = type { ptr, ptr }

; Function Attrs: nounwind uwtable
define dso_local void @WaitForOlderSnapshots(i32 noundef %0, i1 noundef zeroext %1) #0 {
  %3 = alloca i32, align 4
  %4 = alloca i8, align 1
  %5 = alloca i32, align 4
  %6 = alloca i32, align 4
  %7 = alloca ptr, align 8
  %8 = alloca ptr, align 8
  %9 = alloca i32, align 4
  %10 = alloca i32, align 4
  %11 = alloca i32, align 4
  %12 = alloca ptr, align 8
  store i32 %0, ptr %3, align 4
  %13 = zext i1 %1 to i8
  store i8 %13, ptr %4, align 1
  call void @llvm.lifetime.start.p0(i64 4, ptr %5) #10
  call void @llvm.lifetime.start.p0(i64 4, ptr %6) #10
  call void @llvm.lifetime.start.p0(i64 8, ptr %7) #10
  %14 = load i32, ptr %3, align 4
  %15 = call ptr @GetCurrentVirtualXIDs(i32 noundef %14, i1 noundef zeroext true, i1 noundef zeroext false, i32 noundef 7, ptr noundef %5)
  store ptr %15, ptr %7, align 8
  %16 = load i8, ptr %4, align 1, !range !4, !noundef !5
  %17 = trunc i8 %16 to i1
  br i1 %17, label %18, label %21

18:                                               ; preds = %2
  %19 = load i32, ptr %5, align 4
  %20 = sext i32 %19 to i64
  call void @pgstat_progress_update_param(i32 noundef 3, i64 noundef %20)
  br label %21

21:                                               ; preds = %18, %2
  store i32 0, ptr %6, align 4
  br label %22

22:                                               ; preds = %156, %21
  %23 = load i32, ptr %6, align 4
  %24 = load i32, ptr %5, align 4
  %25 = icmp slt i32 %23, %24
  br i1 %25, label %26, label %159

26:                                               ; preds = %22
  %27 = load ptr, ptr %7, align 8
  %28 = load i32, ptr %6, align 4
  %29 = sext i32 %28 to i64
  %30 = getelementptr inbounds %struct.VirtualTransactionId, ptr %27, i64 %29
  %31 = getelementptr inbounds nuw %struct.VirtualTransactionId, ptr %30, i32 0, i32 1
  %32 = load i32, ptr %31, align 4
  %33 = icmp ne i32 %32, 0
  br i1 %33, label %35, label %34

34:                                               ; preds = %26
  br label %156

35:                                               ; preds = %26
  %36 = load i32, ptr %6, align 4
  %37 = icmp sgt i32 %36, 0
  br i1 %37, label %38, label %114

38:                                               ; preds = %35
  call void @llvm.lifetime.start.p0(i64 8, ptr %8) #10
  call void @llvm.lifetime.start.p0(i64 4, ptr %9) #10
  call void @llvm.lifetime.start.p0(i64 4, ptr %10) #10
  call void @llvm.lifetime.start.p0(i64 4, ptr %11) #10
  %39 = load i32, ptr %3, align 4
  %40 = call ptr @GetCurrentVirtualXIDs(i32 noundef %39, i1 noundef zeroext true, i1 noundef zeroext false, i32 noundef 7, ptr noundef %9)
  store ptr %40, ptr %8, align 8
  %41 = load i32, ptr %6, align 4
  store i32 %41, ptr %10, align 4
  br label %42

42:                                               ; preds = %109, %38
  %43 = load i32, ptr %10, align 4
  %44 = load i32, ptr %5, align 4
  %45 = icmp slt i32 %43, %44
  br i1 %45, label %46, label %112

46:                                               ; preds = %42
  %47 = load ptr, ptr %7, align 8
  %48 = load i32, ptr %10, align 4
  %49 = sext i32 %48 to i64
  %50 = getelementptr inbounds %struct.VirtualTransactionId, ptr %47, i64 %49
  %51 = getelementptr inbounds nuw %struct.VirtualTransactionId, ptr %50, i32 0, i32 1
  %52 = load i32, ptr %51, align 4
  %53 = icmp ne i32 %52, 0
  br i1 %53, label %55, label %54

54:                                               ; preds = %46
  br label %109

55:                                               ; preds = %46
  store i32 0, ptr %11, align 4
  br label %56

56:                                               ; preds = %90, %55
  %57 = load i32, ptr %11, align 4
  %58 = load i32, ptr %9, align 4
  %59 = icmp slt i32 %57, %58
  br i1 %59, label %60, label %93

60:                                               ; preds = %56
  %61 = load ptr, ptr %7, align 8
  %62 = load i32, ptr %10, align 4
  %63 = sext i32 %62 to i64
  %64 = getelementptr inbounds %struct.VirtualTransactionId, ptr %61, i64 %63
  %65 = getelementptr inbounds nuw %struct.VirtualTransactionId, ptr %64, i32 0, i32 0
  %66 = load i32, ptr %65, align 4
  %67 = load ptr, ptr %8, align 8
  %68 = load i32, ptr %11, align 4
  %69 = sext i32 %68 to i64
  %70 = getelementptr inbounds %struct.VirtualTransactionId, ptr %67, i64 %69
  %71 = getelementptr inbounds nuw %struct.VirtualTransactionId, ptr %70, i32 0, i32 0
  %72 = load i32, ptr %71, align 4
  %73 = icmp eq i32 %66, %72
  br i1 %73, label %74, label %89

74:                                               ; preds = %60
  %75 = load ptr, ptr %7, align 8
  %76 = load i32, ptr %10, align 4
  %77 = sext i32 %76 to i64
  %78 = getelementptr inbounds %struct.VirtualTransactionId, ptr %75, i64 %77
  %79 = getelementptr inbounds nuw %struct.VirtualTransactionId, ptr %78, i32 0, i32 1
  %80 = load i32, ptr %79, align 4
  %81 = load ptr, ptr %8, align 8
  %82 = load i32, ptr %11, align 4
  %83 = sext i32 %82 to i64
  %84 = getelementptr inbounds %struct.VirtualTransactionId, ptr %81, i64 %83
  %85 = getelementptr inbounds nuw %struct.VirtualTransactionId, ptr %84, i32 0, i32 1
  %86 = load i32, ptr %85, align 4
  %87 = icmp eq i32 %80, %86
  br i1 %87, label %88, label %89

88:                                               ; preds = %74
  br label %93

89:                                               ; preds = %74, %60
  br label %90

90:                                               ; preds = %89
  %91 = load i32, ptr %11, align 4
  %92 = add i32 %91, 1
  store i32 %92, ptr %11, align 4
  br label %56, !llvm.loop !13

93:                                               ; preds = %88, %56
  %94 = load i32, ptr %11, align 4
  %95 = load i32, ptr %9, align 4
  %96 = icmp sge i32 %94, %95
  br i1 %96, label %97, label %108

97:                                               ; preds = %93
  %98 = load ptr, ptr %7, align 8
  %99 = load i32, ptr %10, align 4
  %100 = sext i32 %99 to i64
  %101 = getelementptr inbounds %struct.VirtualTransactionId, ptr %98, i64 %100
  %102 = getelementptr inbounds nuw %struct.VirtualTransactionId, ptr %101, i32 0, i32 0
  store i32 -1, ptr %102, align 4
  %103 = load ptr, ptr %7, align 8
  %104 = load i32, ptr %10, align 4
  %105 = sext i32 %104 to i64
  %106 = getelementptr inbounds %struct.VirtualTransactionId, ptr %103, i64 %105
  %107 = getelementptr inbounds nuw %struct.VirtualTransactionId, ptr %106, i32 0, i32 1
  store i32 0, ptr %107, align 4
  br label %108

108:                                              ; preds = %97, %93
  br label %109

109:                                              ; preds = %108, %54
  %110 = load i32, ptr %10, align 4
  %111 = add i32 %110, 1
  store i32 %111, ptr %10, align 4
  br label %42, !llvm.loop !14

112:                                              ; preds = %42
  %113 = load ptr, ptr %8, align 8
  call void @pfree(ptr noundef %113)
  call void @llvm.lifetime.end.p0(i64 4, ptr %11) #10
  call void @llvm.lifetime.end.p0(i64 4, ptr %10) #10
  call void @llvm.lifetime.end.p0(i64 4, ptr %9) #10
  call void @llvm.lifetime.end.p0(i64 8, ptr %8) #10
  br label %114

114:                                              ; preds = %112, %35
  %115 = load ptr, ptr %7, align 8
  %116 = load i32, ptr %6, align 4
  %117 = sext i32 %116 to i64
  %118 = getelementptr inbounds %struct.VirtualTransactionId, ptr %115, i64 %117
  %119 = getelementptr inbounds nuw %struct.VirtualTransactionId, ptr %118, i32 0, i32 1
  %120 = load i32, ptr %119, align 4
  %121 = icmp ne i32 %120, 0
  br i1 %121, label %122, label %148

122:                                              ; preds = %114
  %123 = load i8, ptr %4, align 1, !range !4, !noundef !5
  %124 = trunc i8 %123 to i1
  br i1 %124, label %125, label %141

125:                                              ; preds = %122
  call void @llvm.lifetime.start.p0(i64 8, ptr %12) #10
  %126 = load ptr, ptr %7, align 8
  %127 = load i32, ptr %6, align 4
  %128 = sext i32 %127 to i64
  %129 = getelementptr inbounds %struct.VirtualTransactionId, ptr %126, i64 %128
  %130 = getelementptr inbounds nuw %struct.VirtualTransactionId, ptr %129, i32 0, i32 0
  %131 = load i32, ptr %130, align 4
  %132 = call ptr @ProcNumberGetProc(i32 noundef %131)
  store ptr %132, ptr %12, align 8
  %133 = load ptr, ptr %12, align 8
  %134 = icmp ne ptr %133, null
  br i1 %134, label %135, label %140

135:                                              ; preds = %125
  %136 = load ptr, ptr %12, align 8
  %137 = getelementptr inbounds nuw %struct.PGPROC, ptr %136, i32 0, i32 7
  %138 = load i32, ptr %137, align 4
  %139 = sext i32 %138 to i64
  call void @pgstat_progress_update_param(i32 noundef 5, i64 noundef %139)
  br label %140

140:                                              ; preds = %135, %125
  call void @llvm.lifetime.end.p0(i64 8, ptr %12) #10
  br label %141

141:                                              ; preds = %140, %122
  %142 = load ptr, ptr %7, align 8
  %143 = load i32, ptr %6, align 4
  %144 = sext i32 %143 to i64
  %145 = getelementptr inbounds %struct.VirtualTransactionId, ptr %142, i64 %144
  %146 = load i64, ptr %145, align 4
  %147 = call zeroext i1 @VirtualXactLock(i64 %146, i1 noundef zeroext true)
  br label %148

148:                                              ; preds = %141, %114
  %149 = load i8, ptr %4, align 1, !range !4, !noundef !5
  %150 = trunc i8 %149 to i1
  br i1 %150, label %151, label %155

151:                                              ; preds = %148
  %152 = load i32, ptr %6, align 4
  %153 = add i32 %152, 1
  %154 = sext i32 %153 to i64
  call void @pgstat_progress_update_param(i32 noundef 4, i64 noundef %154)
  br label %155

155:                                              ; preds = %151, %148
  br label %156

156:                                              ; preds = %155, %34
  %157 = load i32, ptr %6, align 4
  %158 = add i32 %157, 1
  store i32 %158, ptr %6, align 4
  br label %22, !llvm.loop !15

159:                                              ; preds = %22
  call void @llvm.lifetime.end.p0(i64 8, ptr %7) #10
  call void @llvm.lifetime.end.p0(i64 4, ptr %6) #10
  call void @llvm.lifetime.end.p0(i64 4, ptr %5) #10
  ret void
}