; Function Attrs: nounwind uwtable
define dso_local void @WaitForOlderSnapshots(i32 noundef %0, i1 noundef zeroext %1) local_unnamed_addr #0 {
  %3 = alloca i32, align 4
  %4 = alloca i32, align 4
  call void @llvm.lifetime.start.p0(i64 4, ptr nonnull %3) #11
  %5 = call ptr @GetCurrentVirtualXIDs(i32 noundef %0, i1 noundef zeroext true, i1 noundef zeroext false, i32 noundef 7, ptr noundef nonnull %3) #11
  br i1 %1, label %6, label %9

6:                                                ; preds = %2
  %7 = load i32, ptr %3, align 4
  %8 = sext i32 %7 to i64
  call void @pgstat_progress_update_param(i32 noundef 3, i64 noundef %8) #11
  br label %9

9:                                                ; preds = %6, %2
  %10 = load i32, ptr %3, align 4
  %11 = icmp sgt i32 %10, 0
  br i1 %11, label %.lr.ph58, label %._crit_edge59

.lr.ph58:                                         ; preds = %9, %53
  %indvars.iv61 = phi i64 [ %indvars.iv.next62, %53 ], [ 0, %9 ]
  %12 = getelementptr inbounds nuw %struct.VirtualTransactionId, ptr %5, i64 %indvars.iv61
  %13 = getelementptr inbounds nuw i8, ptr %12, i64 4
  %14 = load i32, ptr %13, align 4
  %.not = icmp eq i32 %14, 0
  br i1 %.not, label %53, label %15

15:                                               ; preds = %.lr.ph58
  %.not67 = icmp eq i64 %indvars.iv61, 0
  br i1 %.not67, label %.thread46, label %16

16:                                               ; preds = %15
  call void @llvm.lifetime.start.p0(i64 4, ptr nonnull %4) #11
  %17 = call ptr @GetCurrentVirtualXIDs(i32 noundef %0, i1 noundef zeroext true, i1 noundef zeroext false, i32 noundef 7, ptr noundef nonnull %4) #11
  %18 = load i32, ptr %3, align 4
  %19 = sext i32 %18 to i64
  %20 = icmp slt i64 %indvars.iv61, %19
  br i1 %20, label %.lr.ph51, label %._crit_edge52

.lr.ph51:                                         ; preds = %16, %.thread
  %21 = phi i32 [ %37, %.thread ], [ %18, %16 ]
  %indvars.iv63 = phi i64 [ %indvars.iv.next64, %.thread ], [ %indvars.iv61, %16 ]
  %22 = getelementptr inbounds nuw %struct.VirtualTransactionId, ptr %5, i64 %indvars.iv63
  %23 = getelementptr inbounds nuw i8, ptr %22, i64 4
  %24 = load i32, ptr %23, align 4
  %.not44 = icmp eq i32 %24, 0
  br i1 %.not44, label %.thread, label %.preheader

.preheader:                                       ; preds = %.lr.ph51
  %25 = load i32, ptr %4, align 4
  %26 = icmp sgt i32 %25, 0
  br i1 %26, label %.lr.ph, label %._crit_edge

.lr.ph:                                           ; preds = %.preheader
  %27 = load i32, ptr %22, align 4
  %wide.trip.count = zext nneg i32 %25 to i64
  br label %28

28:                                               ; preds = %.lr.ph, %36
  %indvars.iv = phi i64 [ 0, %.lr.ph ], [ %indvars.iv.next, %36 ]
  %29 = getelementptr inbounds nuw %struct.VirtualTransactionId, ptr %17, i64 %indvars.iv
  %30 = load i32, ptr %29, align 4
  %31 = icmp eq i32 %27, %30
  br i1 %31, label %32, label %36

32:                                               ; preds = %28
  %33 = getelementptr inbounds nuw i8, ptr %29, i64 4
  %34 = load i32, ptr %33, align 4
  %35 = icmp eq i32 %24, %34
  br i1 %35, label %.thread, label %36

36:                                               ; preds = %28, %32
  %indvars.iv.next = add nuw nsw i64 %indvars.iv, 1
  %exitcond.not = icmp eq i64 %indvars.iv.next, %wide.trip.count
  br i1 %exitcond.not, label %._crit_edge, label %28, !llvm.loop !12

._crit_edge:                                      ; preds = %36, %.preheader
  store i32 -1, ptr %22, align 4
  store i32 0, ptr %23, align 4
  %.pre = load i32, ptr %3, align 4
  br label %.thread

.thread:                                          ; preds = %32, %._crit_edge, %.lr.ph51
  %37 = phi i32 [ %.pre, %._crit_edge ], [ %21, %.lr.ph51 ], [ %21, %32 ]
  %indvars.iv.next64 = add nuw nsw i64 %indvars.iv63, 1
  %38 = sext i32 %37 to i64
  %39 = icmp slt i64 %indvars.iv.next64, %38
  br i1 %39, label %.lr.ph51, label %._crit_edge52, !llvm.loop !13

._crit_edge52:                                    ; preds = %.thread, %16
  call void @pfree(ptr noundef %17) #11
  call void @llvm.lifetime.end.p0(i64 4, ptr nonnull %4) #11
  %.pr = load i32, ptr %13, align 4
  %.not42 = icmp eq i32 %.pr, 0
  br i1 %.not42, label %50, label %.thread46

.thread46:                                        ; preds = %15, %._crit_edge52
  br i1 %1, label %40, label %47

40:                                               ; preds = %.thread46
  %41 = load i32, ptr %12, align 4
  %42 = call ptr @ProcNumberGetProc(i32 noundef %41) #11
  %.not43 = icmp eq ptr %42, null
  br i1 %.not43, label %47, label %43

43:                                               ; preds = %40
  %44 = getelementptr inbounds nuw i8, ptr %42, i64 60
  %45 = load i32, ptr %44, align 4
  %46 = sext i32 %45 to i64
  call void @pgstat_progress_update_param(i32 noundef 5, i64 noundef %46) #11
  br label %47

47:                                               ; preds = %40, %43, %.thread46
  %48 = load i64, ptr %12, align 4
  %49 = call zeroext i1 @VirtualXactLock(i64 %48, i1 noundef zeroext true) #11
  br label %50

50:                                               ; preds = %47, %._crit_edge52
  br i1 %1, label %51, label %53

51:                                               ; preds = %50
  %52 = add nuw nsw i64 %indvars.iv61, 1
  call void @pgstat_progress_update_param(i32 noundef 4, i64 noundef %52) #11
  br label %53

53:                                               ; preds = %50, %51, %.lr.ph58
  %indvars.iv.next62 = add nuw nsw i64 %indvars.iv61, 1
  %54 = load i32, ptr %3, align 4
  %55 = sext i32 %54 to i64
  %56 = icmp slt i64 %indvars.iv.next62, %55
  br i1 %56, label %.lr.ph58, label %._crit_edge59, !llvm.loop !14

._crit_edge59:                                    ; preds = %53, %9
  call void @llvm.lifetime.end.p0(i64 4, ptr nonnull %3) #11
  ret void
}